
main.o:     file format elf32-littlearm


Disassembly of section .text:

00000000 <main>:
   0:	b480      	push	{r7}
   2:	b083      	sub	sp, #12
   4:	af00      	add	r7, sp, #0
   6:	4b1a      	ldr	r3, [pc, #104]	; (70 <main+0x70>)
   8:	681b      	ldr	r3, [r3, #0]
   a:	4a19      	ldr	r2, [pc, #100]	; (70 <main+0x70>)
   c:	f043 0304 	orr.w	r3, r3, #4
  10:	6013      	str	r3, [r2, #0]
  12:	4b18      	ldr	r3, [pc, #96]	; (74 <main+0x74>)
  14:	681b      	ldr	r3, [r3, #0]
  16:	4a17      	ldr	r2, [pc, #92]	; (74 <main+0x74>)
  18:	f423 0370 	bic.w	r3, r3, #15728640	; 0xf00000
  1c:	6013      	str	r3, [r2, #0]
  1e:	4b15      	ldr	r3, [pc, #84]	; (74 <main+0x74>)
  20:	681b      	ldr	r3, [r3, #0]
  22:	4a14      	ldr	r2, [pc, #80]	; (74 <main+0x74>)
  24:	f443 1300 	orr.w	r3, r3, #2097152	; 0x200000
  28:	6013      	str	r3, [r2, #0]
  2a:	4b13      	ldr	r3, [pc, #76]	; (78 <main+0x78>)
  2c:	681a      	ldr	r2, [r3, #0]
  2e:	8813      	ldrh	r3, [r2, #0]
  30:	f443 5300 	orr.w	r3, r3, #8192	; 0x2000
  34:	8013      	strh	r3, [r2, #0]
  36:	2300      	movs	r3, #0
  38:	607b      	str	r3, [r7, #4]
  3a:	e002      	b.n	42 <main+0x42>
  3c:	687b      	ldr	r3, [r7, #4]
  3e:	3301      	adds	r3, #1
  40:	607b      	str	r3, [r7, #4]
  42:	687b      	ldr	r3, [r7, #4]
  44:	f241 3287 	movw	r2, #4999	; 0x1387
  48:	4293      	cmp	r3, r2
  4a:	ddf7      	ble.n	3c <main+0x3c>
  4c:	4b0a      	ldr	r3, [pc, #40]	; (78 <main+0x78>)
  4e:	681a      	ldr	r2, [r3, #0]
  50:	8813      	ldrh	r3, [r2, #0]
  52:	f36f 334d 	bfc	r3, #13, #1
  56:	8013      	strh	r3, [r2, #0]
  58:	2300      	movs	r3, #0
  5a:	603b      	str	r3, [r7, #0]
  5c:	e002      	b.n	64 <main+0x64>
  5e:	683b      	ldr	r3, [r7, #0]
  60:	3301      	adds	r3, #1
  62:	603b      	str	r3, [r7, #0]
  64:	683b      	ldr	r3, [r7, #0]
  66:	f241 3287 	movw	r2, #4999	; 0x1387
  6a:	4293      	cmp	r3, r2
  6c:	ddf7      	ble.n	5e <main+0x5e>
  6e:	e7dc      	b.n	2a <main+0x2a>
  70:	40021060 	andmi	r1, r2, r0, rrx
  74:	40010810 	andmi	r0, r1, r0, lsl r8
  78:	00000000 	andeq	r0, r0, r0
